; Function Attrs: nofree nounwind sspstrong uwtable
define dso_local noundef ptr @onig_node_list_add(ptr noundef captures(address_is_null) %0, ptr noundef %1) local_unnamed_addr #14 {
  %3 = tail call noalias noundef dereferenceable_or_null(56) ptr @malloc(i64 noundef 56) #26
  %4 = icmp eq ptr %3, null
  br i1 %4, label %onig_node_new_list.exit.thread, label %5

5:                                                ; preds = %2
  store i32 8, ptr %3, align 1
  %6 = getelementptr inbounds nuw i8, ptr %3, i64 8
  store ptr %1, ptr %6, align 8, !tbaa !13
  %7 = getelementptr inbounds nuw i8, ptr %3, i64 16
  store ptr null, ptr %7, align 8, !tbaa !13
  %.not = icmp eq ptr %0, null
  br i1 %.not, label %onig_node_new_list.exit.thread, label %.preheader

.preheader:                                       ; preds = %5, %.preheader
  %.09 = phi ptr [ %9, %.preheader ], [ %0, %5 ]
  %8 = getelementptr inbounds nuw i8, ptr %.09, i64 16
  %9 = load ptr, ptr %8, align 8, !tbaa !13
  %.not13 = icmp eq ptr %9, null
  br i1 %.not13, label %10, label %.preheader, !llvm.loop !66

10:                                               ; preds = %.preheader
  %11 = getelementptr inbounds nuw i8, ptr %.09, i64 16
  store ptr %3, ptr %11, align 8, !tbaa !13
  br label %onig_node_new_list.exit.thread

onig_node_new_list.exit.thread:                   ; preds = %2, %5, %10
  ret ptr %3
}